target datalayout = "e-m:e-p270:32:32-p271:32:32-p272:64:64-i64:64-i128:128-f80:128-n8:16:32:64-S128"
target triple = "x86_64-unknown-linux-gnu"

; Function Attrs: mustprogress uwtable
define noundef double @_ZN8QuantLib16GFunctionFactory19GFunctionWithShifts16secondDerivativeEd(ptr noundef nonnull align 8 dereferenceable(176) %this, double noundef %Rs) unnamed_addr #2 align 2 {
entry:
  %this.addr = alloca ptr, align 8
  %Rs.addr = alloca double, align 8
  %calibratedShift = alloca double, align 8
  store ptr %this, ptr %this.addr, align 8, !tbaa !3
  store double %Rs, ptr %Rs.addr, align 8, !tbaa !18
  %this1 = load ptr, ptr %this.addr, align 8
  call void @llvm.lifetime.start.p0(i64 8, ptr %calibratedShift) #18
  %0 = load double, ptr %Rs.addr, align 8, !tbaa !18
  %call = call noundef double @_ZN8QuantLib16GFunctionFactory19GFunctionWithShifts18calibrationOfShiftEd(ptr noundef nonnull align 8 dereferenceable(176) %this1, double noundef %0)
  store double %call, ptr %calibratedShift, align 8, !tbaa !18
  %1 = load double, ptr %calibratedShift, align 8, !tbaa !18
  %call2 = call noundef double @_ZN8QuantLib16GFunctionFactory19GFunctionWithShifts9derZ_derXEd(ptr noundef nonnull align 8 dereferenceable(176) %this1, double noundef %1)
  %mul = fmul double 2.000000e+00, %call2
  %2 = load double, ptr %calibratedShift, align 8, !tbaa !18
  %call3 = call noundef double @_ZN8QuantLib16GFunctionFactory19GFunctionWithShifts10derRs_derXEd(ptr noundef nonnull align 8 dereferenceable(176) %this1, double noundef %2)
  %div = fdiv double %mul, %call3
  %3 = load double, ptr %Rs.addr, align 8, !tbaa !18
  %4 = load double, ptr %calibratedShift, align 8, !tbaa !18
  %call4 = call noundef double @_ZN8QuantLib16GFunctionFactory19GFunctionWithShifts11der2Z_derX2Ed(ptr noundef nonnull align 8 dereferenceable(176) %this1, double noundef %4)
  %mul5 = fmul double %3, %call4
  %5 = load double, ptr %calibratedShift, align 8, !tbaa !18
  %call6 = call noundef double @_ZN8QuantLib16GFunctionFactory19GFunctionWithShifts10derRs_derXEd(ptr noundef nonnull align 8 dereferenceable(176) %this1, double noundef %5)
  %call7 = call double @pow(double noundef %call6, double noundef 2.000000e+00) #18, !tbaa !32
  %div8 = fdiv double %mul5, %call7
  %add = fadd double %div, %div8
  %6 = load double, ptr %Rs.addr, align 8, !tbaa !18
  %7 = load double, ptr %calibratedShift, align 8, !tbaa !18
  %call9 = call noundef double @_ZN8QuantLib16GFunctionFactory19GFunctionWithShifts9derZ_derXEd(ptr noundef nonnull align 8 dereferenceable(176) %this1, double noundef %7)
  %mul10 = fmul double %6, %call9
  %8 = load double, ptr %calibratedShift, align 8, !tbaa !18
  %call11 = call noundef double @_ZN8QuantLib16GFunctionFactory19GFunctionWithShifts12der2Rs_derX2Ed(ptr noundef nonnull align 8 dereferenceable(176) %this1, double noundef %8)
  %mul12 = fmul double %mul10, %call11
  %9 = load double, ptr %calibratedShift, align 8, !tbaa !18
  %call13 = call noundef double @_ZN8QuantLib16GFunctionFactory19GFunctionWithShifts10derRs_derXEd(ptr noundef nonnull align 8 dereferenceable(176) %this1, double noundef %9)
  %call14 = call double @pow(double noundef %call13, double noundef 3.000000e+00) #18, !tbaa !32
  %div15 = fdiv double %mul12, %call14
  %sub = fsub double %add, %div15
  call void @llvm.lifetime.end.p0(i64 8, ptr %calibratedShift) #18
  ret double %sub
}