; Function Attrs: mustprogress uwtable
define noundef double @_ZN8QuantLib16GFunctionFactory19GFunctionWithShifts16secondDerivativeEd(ptr noundef nonnull align 8 dereferenceable(176) %this, double noundef %Rs) unnamed_addr #7 align 2 {
entry:
  %call = tail call noundef double @_ZN8QuantLib16GFunctionFactory19GFunctionWithShifts18calibrationOfShiftEd(ptr noundef nonnull align 8 dereferenceable(176) %this, double noundef %Rs)
  %call2 = tail call noundef double @_ZN8QuantLib16GFunctionFactory19GFunctionWithShifts9derZ_derXEd(ptr noundef nonnull align 8 dereferenceable(176) %this, double noundef %call)
  %mul = fmul double %call2, 2.000000e+00
  %call3 = tail call noundef double @_ZN8QuantLib16GFunctionFactory19GFunctionWithShifts10derRs_derXEd(ptr noundef nonnull align 8 dereferenceable(176) %this, double noundef %call)
  %div = fdiv double %mul, %call3
  %call4 = tail call noundef double @_ZN8QuantLib16GFunctionFactory19GFunctionWithShifts11der2Z_derX2Ed(ptr noundef nonnull align 8 dereferenceable(176) %this, double noundef %call)
  %mul5 = fmul double %Rs, %call4
  %call6 = tail call noundef double @_ZN8QuantLib16GFunctionFactory19GFunctionWithShifts10derRs_derXEd(ptr noundef nonnull align 8 dereferenceable(176) %this, double noundef %call)
  %square = fmul double %call6, %call6
  %div8 = fdiv double %mul5, %square
  %add = fadd double %div, %div8
  %call9 = tail call noundef double @_ZN8QuantLib16GFunctionFactory19GFunctionWithShifts9derZ_derXEd(ptr noundef nonnull align 8 dereferenceable(176) %this, double noundef %call)
  %mul10 = fmul double %Rs, %call9
  %call11 = tail call noundef double @_ZN8QuantLib16GFunctionFactory19GFunctionWithShifts12der2Rs_derX2Ed(ptr noundef nonnull align 8 dereferenceable(176) %this, double noundef %call)
  %mul12 = fmul double %mul10, %call11
  %call13 = tail call noundef double @_ZN8QuantLib16GFunctionFactory19GFunctionWithShifts10derRs_derXEd(ptr noundef nonnull align 8 dereferenceable(176) %this, double noundef %call)
  %call14 = tail call double @pow(double noundef %call13, double noundef 3.000000e+00) #35, !tbaa !58
  %div15 = fdiv double %mul12, %call14
  %sub = fsub double %add, %div15
  ret double %sub
}